; Function Attrs: mustprogress uwtable
define void @_ZN6google8protobuf2io16FileOutputStreamC2Eii(ptr noundef nonnull align 8 dereferenceable(72) %0, i32 noundef %1, i32 %2) unnamed_addr #3 align 2 personality ptr @__gxx_personality_v0 {
  store ptr getelementptr inbounds inrange(-16, 56) (i8, ptr @_ZTVN6google8protobuf2io16FileOutputStreamE, i64 16), ptr %0, align 8
  %4 = getelementptr inbounds i8, ptr %0, i64 48
  tail call void @_ZN6google8protobuf2io26CopyingOutputStreamAdaptorC2EPNS1_19CopyingOutputStreamEi(ptr noundef nonnull align 8 dereferenceable(48) %0, ptr noundef nonnull %4, i32 noundef -1)
  store ptr getelementptr inbounds inrange(-16, 56) (i8, ptr @_ZTVN6google8protobuf2io16FileOutputStreamE, i64 16), ptr %0, align 8
  invoke void @_ZN6google8protobuf2io16FileOutputStream23CopyingFileOutputStreamC1Ei(ptr noundef nonnull align 8 dereferenceable(20) %4, i32 noundef %1)
          to label %5 unwind label %6

5:                                                ; preds = %3
  ret void

6:                                                ; preds = %3
  %7 = landingpad { ptr, i32 }
          cleanup
  tail call void @_ZN6google8protobuf2io26CopyingOutputStreamAdaptorD2Ev(ptr noundef nonnull align 8 dereferenceable(48) %0) #12
  resume { ptr, i32 } %7
}